target datalayout = "e-m:e-p270:32:32-p271:32:32-p272:64:64-i64:64-i128:128-f80:128-n8:16:32:64-S128"
target triple = "x86_64-unknown-linux-gnu"

%struct.SemihostingConsole = type { %struct.CharBackend, ptr, ptr, i8, %struct.Fifo8 }
%struct.CharBackend = type { ptr, ptr, ptr, ptr, ptr, ptr, i32, i32 }
%struct.Fifo8 = type { ptr, i32, i32, i32 }

@console = internal global %struct.SemihostingConsole zeroinitializer, align 8
@stderr = external global ptr, align 8

; Function Attrs: nounwind sspstrong uwtable
define dso_local i32 @qemu_semihosting_console_write(ptr noundef %buf, i32 noundef %len) #0 {
entry:
  %retval = alloca i32, align 4
  %buf.addr = alloca ptr, align 8
  %len.addr = alloca i32, align 4
  %r = alloca i32, align 4
  store ptr %buf, ptr %buf.addr, align 8
  store i32 %len, ptr %len.addr, align 4
  %0 = getelementptr inbounds %struct.SemihostingConsole, ptr @console, i32 0, i32 1
  %1 = load ptr, ptr %0, align 8
  %tobool = icmp ne ptr %1, null
  br i1 %tobool, label %if.then, label %if.else

if.then:                                          ; preds = %entry
  %2 = getelementptr inbounds %struct.SemihostingConsole, ptr @console, i32 0, i32 1
  %3 = load ptr, ptr %2, align 8
  %4 = load ptr, ptr %buf.addr, align 8
  %5 = load i32, ptr %len.addr, align 4
  %call = call i32 @qemu_chr_write(ptr noundef %3, ptr noundef %4, i32 noundef %5, i1 noundef zeroext true)
  store i32 %call, ptr %r, align 4
  %6 = load i32, ptr %r, align 4
  %cmp = icmp slt i32 %6, 0
  br i1 %cmp, label %cond.true, label %cond.false

cond.true:                                        ; preds = %if.then
  br label %cond.end

cond.false:                                       ; preds = %if.then
  %7 = load i32, ptr %r, align 4
  br label %cond.end

cond.end:                                         ; preds = %cond.false, %cond.true
  %cond = phi i32 [ 0, %cond.true ], [ %7, %cond.false ]
  store i32 %cond, ptr %retval, align 4
  br label %return

if.else:                                          ; preds = %entry
  %8 = load ptr, ptr %buf.addr, align 8
  %9 = load i32, ptr %len.addr, align 4
  %conv = sext i32 %9 to i64
  %10 = load ptr, ptr @stderr, align 8
  %call1 = call i64 @fwrite(ptr noundef %8, i64 noundef 1, i64 noundef %conv, ptr noundef %10)
  %conv2 = trunc i64 %call1 to i32
  store i32 %conv2, ptr %retval, align 4
  br label %return

return:                                           ; preds = %if.else, %cond.end
  %11 = load i32, ptr %retval, align 4
  ret i32 %11
}