; Function Attrs: nounwind sspstrong uwtable
define dso_local i32 @qemu_semihosting_console_write(ptr noundef %buf, i32 noundef %len) local_unnamed_addr #0 {
entry:
  %0 = load ptr, ptr getelementptr inbounds nuw (i8, ptr @console, i64 56), align 8
  %tobool.not = icmp eq ptr %0, null
  br i1 %tobool.not, label %if.else, label %if.then

if.then:                                          ; preds = %entry
  %call = tail call i32 @qemu_chr_write(ptr noundef nonnull %0, ptr noundef %buf, i32 noundef %len, i1 noundef zeroext true) #5
  %cond = tail call i32 @llvm.smax.i32(i32 %call, i32 0)
  br label %return

if.else:                                          ; preds = %entry
  %conv = sext i32 %len to i64
  %1 = load ptr, ptr @stderr, align 8
  %call1 = tail call i64 @fwrite(ptr noundef %buf, i64 noundef 1, i64 noundef %conv, ptr noundef %1) #7
  %conv2 = trunc i64 %call1 to i32
  br label %return

return:                                           ; preds = %if.else, %if.then
  %retval.0 = phi i32 [ %cond, %if.then ], [ %conv2, %if.else ]
  ret i32 %retval.0
}